target datalayout = "e-m:e-p270:32:32-p271:32:32-p272:64:64-i64:64-i128:128-f80:128-n8:16:32:64-S128"
target triple = "x86_64-pc-linux-gnu"

%struct.Curl_llist_node = type { ptr, ptr, ptr, ptr }
%struct.Cookie = type { %struct.Curl_llist_node, %struct.Curl_llist_node, ptr, ptr, ptr, ptr, ptr, i64, i32, i8 }

; Function Attrs: nounwind uwtable
define internal i32 @cookie_sort_ct(ptr noundef %0, ptr noundef %1) #0 {
  %3 = alloca ptr, align 8
  %4 = alloca ptr, align 8
  %5 = alloca ptr, align 8
  %6 = alloca ptr, align 8
  store ptr %0, ptr %3, align 8, !tbaa !93
  store ptr %1, ptr %4, align 8, !tbaa !93
  call void @llvm.lifetime.start.p0(i64 8, ptr %5) #6
  %7 = load ptr, ptr %3, align 8, !tbaa !93
  %8 = load ptr, ptr %7, align 8, !tbaa !106
  store ptr %8, ptr %5, align 8, !tbaa !106
  call void @llvm.lifetime.start.p0(i64 8, ptr %6) #6
  %9 = load ptr, ptr %4, align 8, !tbaa !93
  %10 = load ptr, ptr %9, align 8, !tbaa !106
  store ptr %10, ptr %6, align 8, !tbaa !106
  %11 = load ptr, ptr %6, align 8, !tbaa !106
  %12 = getelementptr inbounds nuw %struct.Cookie, ptr %11, i32 0, i32 8
  %13 = load i32, ptr %12, align 8, !tbaa !112
  %14 = load ptr, ptr %5, align 8, !tbaa !106
  %15 = getelementptr inbounds nuw %struct.Cookie, ptr %14, i32 0, i32 8
  %16 = load i32, ptr %15, align 8, !tbaa !112
  %17 = icmp sgt i32 %13, %16
  %18 = select i1 %17, i32 1, i32 -1
  call void @llvm.lifetime.end.p0(i64 8, ptr %6) #6
  call void @llvm.lifetime.end.p0(i64 8, ptr %5) #6
  ret i32 %18
}